; Function Attrs: mustprogress nofree norecurse nosync nounwind willreturn memory(readwrite, argmem: write, inaccessiblemem: none) uwtable
define hidden void @_ZN15XStatPhasePauseC2EPKc(ptr noundef nonnull align 8 dereferenceable(48) %0, ptr noundef %1) unnamed_addr #3 align 2 {
  %3 = getelementptr inbounds i8, ptr %0, i64 8
  %4 = load i32, ptr @_ZN18XStatIterableValueI12XStatSamplerE6_countE, align 4
  %5 = add i32 %4, 1
  store i32 %5, ptr @_ZN18XStatIterableValueI12XStatSamplerE6_countE, align 4
  store ptr @.str.21, ptr %3, align 8
  %6 = getelementptr inbounds i8, ptr %0, i64 16
  store ptr %1, ptr %6, align 8
  %7 = getelementptr inbounds i8, ptr %0, i64 24
  store i32 %4, ptr %7, align 8
  %8 = getelementptr inbounds i8, ptr %0, i64 28
  %9 = load i32, ptr @_ZN10XStatValue11_cpu_offsetE, align 4
  store i32 %9, ptr %8, align 4
  %10 = add i32 %9, 24
  store i32 %10, ptr @_ZN10XStatValue11_cpu_offsetE, align 4
  %11 = getelementptr inbounds i8, ptr %0, i64 32
  %12 = load ptr, ptr @_ZN18XStatIterableValueI12XStatSamplerE6_firstE, align 8
  store ptr %3, ptr @_ZN18XStatIterableValueI12XStatSamplerE6_firstE, align 8
  store ptr %12, ptr %11, align 8
  %13 = getelementptr inbounds i8, ptr %0, i64 40
  store ptr @_Z13XStatUnitTime15LogTargetHandleRK12XStatSamplerRK19XStatSamplerHistory, ptr %13, align 8
  store ptr getelementptr inbounds inrange(-16, 16) (i8, ptr @_ZTV15XStatPhasePause, i64 16), ptr %0, align 8
  ret void
}